target datalayout = "e-m:e-p270:32:32-p271:32:32-p272:64:64-i64:64-i128:128-f80:128-n8:16:32:64-S128"
target triple = "x86_64-pc-linux-gnu"

%struct._GString = type { ptr, i64, i64 }

@gpa_protocol_aliases = internal global ptr null, align 8
@.str.9 = private unnamed_addr constant [4 x i8] c".%s\00", align 1

; Function Attrs: null_pointer_is_valid sspstrong uwtable
define ptr @proto_registrar_get_byalias(ptr noundef %0) #0 {
  %2 = alloca ptr, align 8
  %3 = alloca ptr, align 8
  %4 = alloca ptr, align 8
  %5 = alloca ptr, align 8
  %6 = alloca ptr, align 8
  %7 = alloca i32, align 4
  %8 = alloca ptr, align 8
  %9 = alloca ptr, align 8
  store ptr %0, ptr %3, align 8
  %10 = load ptr, ptr %3, align 8
  %11 = icmp ne ptr %10, null
  br i1 %11, label %13, label %12

12:                                               ; preds = %1
  store ptr null, ptr %2, align 8
  br label %49

13:                                               ; preds = %1
  call void @llvm.lifetime.start.p0(i64 8, ptr %4) #24
  %14 = load ptr, ptr %3, align 8
  %15 = call noalias ptr @g_strdup(ptr noundef %14)
  store ptr %15, ptr %4, align 8
  call void @llvm.lifetime.start.p0(i64 8, ptr %5) #24
  %16 = load ptr, ptr %4, align 8
  %17 = call ptr @strchr(ptr noundef %16, i32 noundef 46) #29
  store ptr %17, ptr %5, align 8
  %18 = load ptr, ptr %5, align 8
  %19 = icmp ne ptr %18, null
  br i1 %19, label %20, label %22

20:                                               ; preds = %13
  %21 = load ptr, ptr %5, align 8
  store i8 0, ptr %21, align 1
  br label %22

22:                                               ; preds = %20, %13
  call void @llvm.lifetime.start.p0(i64 8, ptr %6) #24
  %23 = load ptr, ptr @gpa_protocol_aliases, align 8
  %24 = load ptr, ptr %4, align 8
  %25 = call ptr @g_hash_table_lookup(ptr noundef %23, ptr noundef %24)
  store ptr %25, ptr %6, align 8
  %26 = load ptr, ptr %6, align 8
  %27 = icmp ne ptr %26, null
  br i1 %27, label %30, label %28

28:                                               ; preds = %22
  %29 = load ptr, ptr %4, align 8
  call void @g_free(ptr noundef %29)
  store ptr null, ptr %2, align 8
  store i32 1, ptr %7, align 4
  br label %48

30:                                               ; preds = %22
  call void @llvm.lifetime.start.p0(i64 8, ptr %8) #24
  %31 = load ptr, ptr %6, align 8
  %32 = call ptr @g_string_new(ptr noundef %31)
  store ptr %32, ptr %8, align 8
  %33 = load ptr, ptr %5, align 8
  %34 = icmp ne ptr %33, null
  br i1 %34, label %35, label %39

35:                                               ; preds = %30
  %36 = load ptr, ptr %8, align 8
  %37 = load ptr, ptr %5, align 8
  %38 = getelementptr i8, ptr %37, i64 1
  call void (ptr, ptr, ...) @g_string_append_printf(ptr noundef %36, ptr noundef @.str.9, ptr noundef %38)
  br label %39

39:                                               ; preds = %35, %30
  call void @llvm.lifetime.start.p0(i64 8, ptr %9) #24
  %40 = load ptr, ptr %8, align 8
  %41 = getelementptr inbounds nuw %struct._GString, ptr %40, i32 0, i32 0
  %42 = load ptr, ptr %41, align 8
  %43 = call ptr @proto_registrar_get_byname(ptr noundef %42)
  store ptr %43, ptr %9, align 8
  %44 = load ptr, ptr %4, align 8
  call void @g_free(ptr noundef %44)
  %45 = load ptr, ptr %8, align 8
  %46 = call ptr @g_string_free(ptr noundef %45, i32 noundef 1)
  %47 = load ptr, ptr %9, align 8
  store ptr %47, ptr %2, align 8
  store i32 1, ptr %7, align 4
  call void @llvm.lifetime.end.p0(i64 8, ptr %9) #24
  call void @llvm.lifetime.end.p0(i64 8, ptr %8) #24
  br label %48

48:                                               ; preds = %39, %28
  call void @llvm.lifetime.end.p0(i64 8, ptr %6) #24
  call void @llvm.lifetime.end.p0(i64 8, ptr %5) #24
  call void @llvm.lifetime.end.p0(i64 8, ptr %4) #24
  br label %49

49:                                               ; preds = %48, %12
  %50 = load ptr, ptr %2, align 8
  ret ptr %50
}