; Function Attrs: null_pointer_is_valid sspstrong uwtable
define ptr @proto_registrar_get_byalias(ptr noundef %0) local_unnamed_addr #0 {
  %.not = icmp eq ptr %0, null
  br i1 %.not, label %18, label %2

2:                                                ; preds = %1
  %3 = tail call noalias ptr @g_strdup(ptr noundef nonnull %0)
  %4 = tail call ptr @strchr(ptr noundef %3, i32 noundef 46) #41
  %.not21 = icmp eq ptr %4, null
  br i1 %.not21, label %6, label %5

5:                                                ; preds = %2
  store i8 0, ptr %4, align 1
  br label %6

6:                                                ; preds = %5, %2
  %7 = load ptr, ptr @gpa_protocol_aliases, align 8
  %8 = tail call ptr @g_hash_table_lookup(ptr noundef %7, ptr noundef %3)
  %.not22 = icmp eq ptr %8, null
  br i1 %.not22, label %9, label %10

9:                                                ; preds = %6
  tail call void @g_free(ptr noundef %3)
  br label %18

10:                                               ; preds = %6
  %11 = tail call ptr @g_string_new(ptr noundef nonnull %8)
  br i1 %.not21, label %14, label %12

12:                                               ; preds = %10
  %13 = getelementptr i8, ptr %4, i64 1
  tail call void (ptr, ptr, ...) @g_string_append_printf(ptr noundef %11, ptr noundef nonnull @.str.9, ptr noundef %13)
  br label %14

14:                                               ; preds = %12, %10
  %15 = load ptr, ptr %11, align 8
  %16 = tail call ptr @proto_registrar_get_byname(ptr noundef %15)
  tail call void @g_free(ptr noundef %3)
  %17 = tail call ptr @g_string_free(ptr noundef %11, i32 noundef 1)
  br label %18

18:                                               ; preds = %9, %14, %1
  %.0 = phi ptr [ null, %1 ], [ %16, %14 ], [ null, %9 ]
  ret ptr %.0
}